; Function Attrs: mustprogress uwtable
define noundef ptr @_ZN13duckdb_yyjson17yyjson_write_optsEPKNS_10yyjson_docEjPKNS_10yyjson_alcEPmPNS_16yyjson_write_errE(ptr noundef readonly captures(address_is_null) %0, i32 noundef %1, ptr noundef captures(address_is_null) %2, ptr noundef captures(address_is_null) %3, ptr noundef captures(address_is_null) %4) local_unnamed_addr #10 {
  %.not = icmp eq ptr %0, null
  br i1 %.not, label %8, label %6

6:                                                ; preds = %5
  %7 = load ptr, ptr %0, align 8, !tbaa !69
  br label %8

8:                                                ; preds = %5, %6
  %9 = phi ptr [ %7, %6 ], [ null, %5 ]
  %10 = tail call noundef ptr @_ZN13duckdb_yyjson21yyjson_val_write_optsEPKNS_10yyjson_valEjPKNS_10yyjson_alcEPmPNS_16yyjson_write_errE(ptr noundef %9, i32 noundef %1, ptr noundef %2, ptr noundef %3, ptr noundef %4)
  ret ptr %10
}